target datalayout = "e-m:e-p270:32:32-p271:32:32-p272:64:64-i64:64-i128:128-f80:128-n8:16:32:64-S128"
target triple = "x86_64-pc-linux-gnu"

%struct.AVRational = type { i32, i32 }
%struct.CIDEntry = type { i32, i32, i32, i32, i32, i16, i32, i32, i32, ptr, ptr, ptr, ptr, ptr, ptr, ptr, ptr, ptr, ptr, [5 x i32], %struct.AVRational }

@.str.1 = private unnamed_addr constant [56 x i8] c"Frame size: %dx%d%c; bitrate: %dMbps; pixel format: %s\0A\00", align 1
@.str.2 = private unnamed_addr constant [18 x i8] c"yuv444p10, gbrp10\00", align 1
@.str.3 = private unnamed_addr constant [10 x i8] c"yuv422p10\00", align 1
@.str.4 = private unnamed_addr constant [8 x i8] c"yuv422p\00", align 1

; Function Attrs: nounwind uwtable
define void @ff_dnxhd_print_profiles(ptr noundef %0, i32 noundef %1) #0 {
  %3 = alloca ptr, align 8
  %4 = alloca i32, align 4
  %5 = alloca i32, align 4
  %6 = alloca i32, align 4
  %7 = alloca ptr, align 8
  store ptr %0, ptr %3, align 8, !tbaa !22
  store i32 %1, ptr %4, align 4, !tbaa !4
  call void @llvm.lifetime.start.p0(i64 4, ptr %5) #3
  call void @llvm.lifetime.start.p0(i64 4, ptr %6) #3
  store i32 0, ptr %5, align 4, !tbaa !4
  br label %8

8:                                                ; preds = %70, %2
  %9 = load i32, ptr %5, align 4, !tbaa !4
  %10 = sext i32 %9 to i64
  %11 = icmp ult i64 %10, 20
  br i1 %11, label %12, label %73

12:                                               ; preds = %8
  call void @llvm.lifetime.start.p0(i64 8, ptr %7) #3
  %13 = load i32, ptr %5, align 4, !tbaa !4
  %14 = sext i32 %13 to i64
  %15 = getelementptr inbounds [20 x %struct.CIDEntry], ptr @dnxhd_cid_table, i64 0, i64 %14
  store ptr %15, ptr %7, align 8, !tbaa !17
  store i32 0, ptr %6, align 4, !tbaa !4
  br label %16

16:                                               ; preds = %66, %12
  %17 = load i32, ptr %6, align 4, !tbaa !4
  %18 = sext i32 %17 to i64
  %19 = icmp ult i64 %18, 5
  br i1 %19, label %20, label %69

20:                                               ; preds = %16
  %21 = load ptr, ptr %7, align 8, !tbaa !17
  %22 = getelementptr inbounds nuw %struct.CIDEntry, ptr %21, i32 0, i32 19
  %23 = load i32, ptr %6, align 4, !tbaa !4
  %24 = sext i32 %23 to i64
  %25 = getelementptr inbounds [5 x i32], ptr %22, i64 0, i64 %24
  %26 = load i32, ptr %25, align 4, !tbaa !4
  %27 = icmp ne i32 %26, 0
  br i1 %27, label %29, label %28

28:                                               ; preds = %20
  br label %69

29:                                               ; preds = %20
  %30 = load ptr, ptr %3, align 8, !tbaa !22
  %31 = load i32, ptr %4, align 4, !tbaa !4
  %32 = load ptr, ptr %7, align 8, !tbaa !17
  %33 = getelementptr inbounds nuw %struct.CIDEntry, ptr %32, i32 0, i32 1
  %34 = load i32, ptr %33, align 4, !tbaa !42
  %35 = load ptr, ptr %7, align 8, !tbaa !17
  %36 = getelementptr inbounds nuw %struct.CIDEntry, ptr %35, i32 0, i32 2
  %37 = load i32, ptr %36, align 8, !tbaa !44
  %38 = load ptr, ptr %7, align 8, !tbaa !17
  %39 = getelementptr inbounds nuw %struct.CIDEntry, ptr %38, i32 0, i32 5
  %40 = load i16, ptr %39, align 4, !tbaa !41
  %41 = zext i16 %40 to i32
  %42 = and i32 %41, 1
  %43 = icmp ne i32 %42, 0
  %44 = select i1 %43, i32 105, i32 112
  %45 = load ptr, ptr %7, align 8, !tbaa !17
  %46 = getelementptr inbounds nuw %struct.CIDEntry, ptr %45, i32 0, i32 19
  %47 = load i32, ptr %6, align 4, !tbaa !4
  %48 = sext i32 %47 to i64
  %49 = getelementptr inbounds [5 x i32], ptr %46, i64 0, i64 %48
  %50 = load i32, ptr %49, align 4, !tbaa !4
  %51 = load ptr, ptr %7, align 8, !tbaa !17
  %52 = getelementptr inbounds nuw %struct.CIDEntry, ptr %51, i32 0, i32 5
  %53 = load i16, ptr %52, align 4, !tbaa !41
  %54 = zext i16 %53 to i32
  %55 = and i32 %54, 4
  %56 = icmp ne i32 %55, 0
  br i1 %56, label %57, label %58

57:                                               ; preds = %29
  br label %64

58:                                               ; preds = %29
  %59 = load ptr, ptr %7, align 8, !tbaa !17
  %60 = getelementptr inbounds nuw %struct.CIDEntry, ptr %59, i32 0, i32 7
  %61 = load i32, ptr %60, align 4, !tbaa !47
  %62 = icmp eq i32 %61, 10
  %63 = select i1 %62, ptr @.str.3, ptr @.str.4
  br label %64

64:                                               ; preds = %58, %57
  %65 = phi ptr [ @.str.2, %57 ], [ %63, %58 ]
  call void (ptr, i32, ptr, ...) @av_log(ptr noundef %30, i32 noundef %31, ptr noundef @.str.1, i32 noundef %34, i32 noundef %37, i32 noundef %44, i32 noundef %50, ptr noundef %65)
  br label %66

66:                                               ; preds = %64
  %67 = load i32, ptr %6, align 4, !tbaa !4
  %68 = add nsw i32 %67, 1
  store i32 %68, ptr %6, align 4, !tbaa !4
  br label %16, !llvm.loop !51

69:                                               ; preds = %28, %16
  call void @llvm.lifetime.end.p0(i64 8, ptr %7) #3
  br label %70

70:                                               ; preds = %69
  %71 = load i32, ptr %5, align 4, !tbaa !4
  %72 = add nsw i32 %71, 1
  store i32 %72, ptr %5, align 4, !tbaa !4
  br label %8, !llvm.loop !52

73:                                               ; preds = %8
  call void @llvm.lifetime.end.p0(i64 4, ptr %6) #3
  call void @llvm.lifetime.end.p0(i64 4, ptr %5) #3
  ret void
}